target datalayout = "e-m:e-p270:32:32-p271:32:32-p272:64:64-i64:64-i128:128-f80:128-n8:16:32:64-S128"
target triple = "x86_64-pc-linux-gnu"

%struct.rb_vm_struct = type { i64, %struct.anon.0, ptr, i64, %struct.ccan_list_head, i32, i8, i64, ptr, [5 x i64], i64, i64, i64, i64, i64, i64, i64, i64, i64, ptr, ptr, ptr, %struct.anon.4, ptr, i32, %struct.ccan_list_head, %union.pthread_mutex_t, i64, i64, i64, i64, i32, %struct.anon.5, ptr, ptr, ptr, ptr, ptr, ptr, ptr, ptr, i64, [1023 x ptr], %struct.anon.6 }
%struct.anon.0 = type { %struct.ccan_list_head, i32, i32, ptr, ptr, %struct.anon.1, %struct.anon.3 }
%struct.anon.1 = type { %union.pthread_mutex_t, ptr, i32, %union.pthread_cond_t, i8 }
%union.pthread_cond_t = type { %struct.__pthread_cond_s }
%struct.__pthread_cond_s = type { %union.__atomic_wide_counter, %union.__atomic_wide_counter, [2 x i32], [2 x i32], i32, i32, [2 x i32] }
%union.__atomic_wide_counter = type { i64 }
%struct.anon.3 = type { %union.pthread_mutex_t, ptr, i8, %union.pthread_cond_t, i32, i32, i32, i32, %struct.ccan_list_head, i32, %struct.ccan_list_head, %struct.ccan_list_head, %struct.ccan_list_head, i8, %union.pthread_cond_t, %union.pthread_cond_t, i8, i32, i32 }
%struct.anon.4 = type { [65 x i64] }
%struct.ccan_list_head = type { %struct.ccan_list_node }
%struct.ccan_list_node = type { ptr, ptr }
%union.pthread_mutex_t = type { %struct.__pthread_mutex_s }
%struct.__pthread_mutex_s = type { i32, i32, i32, i32, i32, i16, i16, %struct.__pthread_internal_list }
%struct.__pthread_internal_list = type { ptr, ptr }
%struct.anon.5 = type { ptr, ptr }
%struct.anon.6 = type { i64, i64, i64, i64 }
%struct.gc_mark_func_data_struct = type { ptr, ptr }

@ruby_current_vm_ptr = external global ptr, align 8

; Function Attrs: inlinehint nounwind sspstrong willreturn memory(none) uwtable
define internal zeroext i1 @RB_IMMEDIATE_P(i64 noundef %0) #7 {
  %2 = alloca i64, align 8
  store i64 %0, ptr %2, align 8, !tbaa !18
  %3 = load i64, ptr %2, align 8, !tbaa !18
  %4 = and i64 %3, 7
  %5 = icmp ne i64 %4, 0
  ret i1 %5
}

; Function Attrs: nounwind sspstrong uwtable
define internal void @rb_gc_impl_mark(ptr noundef %0, i64 noundef %1) #0 {
  %3 = alloca ptr, align 8
  %4 = alloca i64, align 8
  %5 = alloca ptr, align 8
  store ptr %0, ptr %3, align 8, !tbaa !76
  store i64 %1, ptr %4, align 8, !tbaa !18
  call void @llvm.lifetime.start.p0(i64 8, ptr %5) #6
  %6 = load ptr, ptr %3, align 8, !tbaa !76
  store ptr %6, ptr %5, align 8, !tbaa !125
  %7 = load ptr, ptr %5, align 8, !tbaa !125
  %8 = load i64, ptr %4, align 8, !tbaa !18
  call void @gc_mark(ptr noundef %7, i64 noundef %8)
  call void @llvm.lifetime.end.p0(i64 8, ptr %5) #6
  ret void
}

; Function Attrs: inlinehint nounwind sspstrong uwtable
define internal ptr @rb_current_vm() #2 {
  %1 = load ptr, ptr @ruby_current_vm_ptr, align 8, !tbaa !74
  ret ptr %1
}

; Function Attrs: inlinehint nounwind sspstrong willreturn memory(none) uwtable
define internal zeroext i1 @RB_SPECIAL_CONST_P(i64 noundef %0) #7 {
  %2 = alloca i64, align 8
  store i64 %0, ptr %2, align 8, !tbaa !18
  %3 = load i64, ptr %2, align 8, !tbaa !18
  %4 = icmp eq i64 %3, 0
  br i1 %4, label %8, label %5

5:                                                ; preds = %1
  %6 = load i64, ptr %2, align 8, !tbaa !18
  %7 = call zeroext i1 @RB_IMMEDIATE_P(i64 noundef %6) #42
  br label %8

8:                                                ; preds = %5, %1
  %9 = phi i1 [ true, %1 ], [ %7, %5 ]
  ret i1 %9
}

; Function Attrs: inlinehint nounwind sspstrong uwtable
define internal void @gc_mark_internal(i64 noundef %0) #2 {
  %2 = alloca i64, align 8
  %3 = alloca ptr, align 8
  %4 = alloca ptr, align 8
  %5 = alloca ptr, align 8
  store i64 %0, ptr %2, align 8, !tbaa !18
  br label %6

6:                                                ; preds = %1
  %7 = load i64, ptr %2, align 8, !tbaa !18
  %8 = call zeroext i1 @RB_SPECIAL_CONST_P(i64 noundef %7) #42
  br i1 %8, label %49, label %9

9:                                                ; preds = %6
  call void @llvm.lifetime.start.p0(i64 8, ptr %3) #6
  %10 = call ptr @rb_current_vm()
  store ptr %10, ptr %3, align 8, !tbaa !74
  call void @llvm.lifetime.start.p0(i64 8, ptr %4) #6
  %11 = load ptr, ptr %3, align 8, !tbaa !74
  %12 = getelementptr inbounds nuw %struct.rb_vm_struct, ptr %11, i32 0, i32 32
  %13 = getelementptr inbounds nuw %struct.anon.5, ptr %12, i32 0, i32 0
  %14 = load ptr, ptr %13, align 8, !tbaa !55
  store ptr %14, ptr %4, align 8, !tbaa !76
  %15 = load ptr, ptr %3, align 8, !tbaa !74
  %16 = getelementptr inbounds nuw %struct.rb_vm_struct, ptr %15, i32 0, i32 32
  %17 = getelementptr inbounds nuw %struct.anon.5, ptr %16, i32 0, i32 1
  %18 = load ptr, ptr %17, align 8, !tbaa !272
  %19 = icmp eq ptr %18, null
  %20 = xor i1 %19, true
  %21 = xor i1 %20, true
  %22 = zext i1 %21 to i32
  %23 = sext i32 %22 to i64
  %24 = call i64 @llvm.expect.i64(i64 %23, i64 1)
  %25 = icmp ne i64 %24, 0
  br i1 %25, label %26, label %29

26:                                               ; preds = %9
  %27 = load ptr, ptr %4, align 8, !tbaa !76
  %28 = load i64, ptr %2, align 8, !tbaa !18
  call void @rb_gc_impl_mark(ptr noundef %27, i64 noundef %28)
  br label %48

29:                                               ; preds = %9
  call void @llvm.lifetime.start.p0(i64 8, ptr %5) #6
  %30 = load ptr, ptr %3, align 8, !tbaa !74
  %31 = getelementptr inbounds nuw %struct.rb_vm_struct, ptr %30, i32 0, i32 32
  %32 = getelementptr inbounds nuw %struct.anon.5, ptr %31, i32 0, i32 1
  %33 = load ptr, ptr %32, align 8, !tbaa !272
  store ptr %33, ptr %5, align 8, !tbaa !273
  %34 = load ptr, ptr %3, align 8, !tbaa !74
  %35 = getelementptr inbounds nuw %struct.rb_vm_struct, ptr %34, i32 0, i32 32
  %36 = getelementptr inbounds nuw %struct.anon.5, ptr %35, i32 0, i32 1
  store ptr null, ptr %36, align 8, !tbaa !272
  %37 = load ptr, ptr %5, align 8, !tbaa !273
  %38 = getelementptr inbounds nuw %struct.gc_mark_func_data_struct, ptr %37, i32 0, i32 1
  %39 = load ptr, ptr %38, align 8, !tbaa !274
  %40 = load i64, ptr %2, align 8, !tbaa !18
  %41 = load ptr, ptr %5, align 8, !tbaa !273
  %42 = getelementptr inbounds nuw %struct.gc_mark_func_data_struct, ptr %41, i32 0, i32 0
  %43 = load ptr, ptr %42, align 8, !tbaa !276
  call void %39(i64 noundef %40, ptr noundef %43)
  %44 = load ptr, ptr %5, align 8, !tbaa !273
  %45 = load ptr, ptr %3, align 8, !tbaa !74
  %46 = getelementptr inbounds nuw %struct.rb_vm_struct, ptr %45, i32 0, i32 32
  %47 = getelementptr inbounds nuw %struct.anon.5, ptr %46, i32 0, i32 1
  store ptr %44, ptr %47, align 8, !tbaa !272
  call void @llvm.lifetime.end.p0(i64 8, ptr %5) #6
  br label %48

48:                                               ; preds = %29, %26
  call void @llvm.lifetime.end.p0(i64 8, ptr %4) #6
  call void @llvm.lifetime.end.p0(i64 8, ptr %3) #6
  br label %49

49:                                               ; preds = %48, %6
  br label %50

50:                                               ; preds = %49
  ret void
}