; Function Attrs: inlinehint nounwind sspstrong uwtable
define internal fastcc void @gc_mark_internal(i64 noundef %0) unnamed_addr #8 {
  %2 = icmp eq i64 %0, 0
  %3 = and i64 %0, 7
  %4 = icmp ne i64 %3, 0
  %5 = or i1 %2, %4
  br i1 %5, label %18, label %6

6:                                                ; preds = %1
  %7 = load ptr, ptr @ruby_current_vm_ptr, align 8, !tbaa !62
  %8 = getelementptr inbounds nuw i8, ptr %7, i64 1304
  %9 = load ptr, ptr %8, align 8, !tbaa !279
  %10 = icmp eq ptr %9, null
  br i1 %10, label %11, label %14, !prof !45

11:                                               ; preds = %6
  %12 = getelementptr inbounds nuw i8, ptr %7, i64 1296
  %13 = load ptr, ptr %12, align 8, !tbaa !63
  tail call fastcc void @gc_mark(ptr noundef %13, i64 noundef %0)
  br label %18

14:                                               ; preds = %6
  store ptr null, ptr %8, align 8, !tbaa !279
  %15 = getelementptr inbounds nuw i8, ptr %9, i64 8
  %16 = load ptr, ptr %15, align 8, !tbaa !280
  %17 = load ptr, ptr %9, align 8, !tbaa !282
  tail call void %16(i64 noundef %0, ptr noundef %17) #7
  store ptr %9, ptr %8, align 8, !tbaa !279
  br label %18

18:                                               ; preds = %11, %14, %1
  ret void
}